; Function Attrs: nounwind uwtable
define dso_local i32 @SPI_execute_plan_with_paramlist(ptr noundef readonly captures(address_is_null) %0, ptr noundef %1, i1 noundef zeroext %2, i64 noundef %3) local_unnamed_addr #0 {
  %5 = alloca %struct.SPIExecuteOptions, align 8
  %6 = zext i1 %2 to i8
  call void @llvm.lifetime.start.p0(i64 40, ptr nonnull %5) #15
  %7 = icmp eq ptr %0, null
  br i1 %7, label %_SPI_begin_call.exit, label %8

8:                                                ; preds = %4
  %9 = load i32, ptr %0, align 8
  %10 = icmp ne i32 %9, 569278163
  %11 = icmp slt i64 %3, 0
  %or.cond = or i1 %11, %10
  br i1 %or.cond, label %_SPI_begin_call.exit, label %12

12:                                               ; preds = %8
  %13 = load ptr, ptr @_SPI_current, align 8
  %.not = icmp eq ptr %13, null
  br i1 %.not, label %_SPI_begin_call.exit, label %_SPI_begin_call.exit.thread

_SPI_begin_call.exit.thread:                      ; preds = %12
  %14 = tail call i32 @GetCurrentSubTransactionId() #15
  %15 = load ptr, ptr @_SPI_current, align 8
  %16 = getelementptr inbounds nuw i8, ptr %15, i64 16
  store i32 %14, ptr %16, align 8
  %17 = getelementptr inbounds nuw i8, ptr %15, i64 40
  %18 = load ptr, ptr %17, align 8
  store ptr %18, ptr @CurrentMemoryContext, align 8
  %19 = getelementptr inbounds nuw i8, ptr %5, i64 8
  call void @llvm.memset.p0.i64(ptr noundef nonnull align 8 dereferenceable(40) %19, i8 0, i64 32, i1 false)
  store ptr %1, ptr %5, align 8
  %20 = getelementptr inbounds nuw i8, ptr %5, i64 8
  store i8 %6, ptr %20, align 8
  %21 = getelementptr inbounds nuw i8, ptr %5, i64 16
  store i64 %3, ptr %21, align 8
  %22 = call fastcc i32 @_SPI_execute_plan(ptr noundef %0, ptr noundef %5, ptr noundef null, ptr noundef null, i1 noundef zeroext true)
  %23 = load ptr, ptr @_SPI_current, align 8
  %24 = getelementptr inbounds nuw i8, ptr %23, i64 32
  %25 = load ptr, ptr %24, align 8
  store ptr %25, ptr @CurrentMemoryContext, align 8
  %26 = getelementptr inbounds nuw i8, ptr %23, i64 16
  store i32 0, ptr %26, align 8
  %27 = getelementptr inbounds nuw i8, ptr %23, i64 40
  %28 = load ptr, ptr %27, align 8
  tail call void @MemoryContextReset(ptr noundef %28) #15
  br label %_SPI_begin_call.exit

_SPI_begin_call.exit:                             ; preds = %12, %4, %8, %_SPI_begin_call.exit.thread
  %.0 = phi i32 [ %22, %_SPI_begin_call.exit.thread ], [ -6, %8 ], [ -6, %4 ], [ -4, %12 ]
  call void @llvm.lifetime.end.p0(i64 40, ptr nonnull %5) #15
  ret i32 %.0
}